	.text
	.file	"assign1o.ll"
	.globl	main                            # -- Begin function main
	.p2align	4, 0x90
	.type	main,@function
main:                                   # @main
	.cfi_startproc
# %bb.0:                                # %entry
	pushq	%rax
	.cfi_def_cfa_offset 16
	callq	Main_new@PLT
	movq	%rax, %rdi
	callq	Main_main@PLT
	xorl	%eax, %eax
	popq	%rcx
	.cfi_def_cfa_offset 8
	retq
.Lfunc_end0:
	.size	main, .Lfunc_end0-main
	.cfi_endproc
                                        # -- End function
	.globl	Main_main                       # -- Begin function Main_main
	.p2align	4, 0x90
	.type	Main_main,@function
Main_main:                              # @Main_main
	.cfi_startproc
# %bb.0:                                # %entry
	pushq	%rax
	.cfi_def_cfa_offset 16
	movq	%rdi, (%rsp)
	movl	$7656, 8(%rdi)                  # imm = 0x1DE8
	movq	(%rsp), %rdi
	testq	%rdi, %rdi
	je	.LBB1_2
# %bb.1:                                # %ok.0
	movl	8(%rdi), %esi
	movq	(%rdi), %rax
	callq	*56(%rax)
	movq	(%rsp), %rax
	popq	%rcx
	.cfi_def_cfa_offset 8
	retq
.LBB1_2:                                # %abort
	.cfi_def_cfa_offset 16
	callq	abort@PLT
.Lfunc_end1:
	.size	Main_main, .Lfunc_end1-Main_main
	.cfi_endproc
                                        # -- End function
	.globl	Main_new                        # -- Begin function Main_new
	.p2align	4, 0x90
	.type	Main_new,@function
Main_new:                               # @Main_new
	.cfi_startproc
# %bb.0:                                # %entry
	pushq	%rbx
	.cfi_def_cfa_offset 16
	subq	$16, %rsp
	.cfi_def_cfa_offset 32
	.cfi_offset %rbx, -16
	movq	Main_vtable_prototype@GOTPCREL(%rip), %rbx
	movl	4(%rbx), %edi
	callq	malloc@PLT
	movq	%rbx, (%rax)
	movq	%rax, 8(%rsp)
	movl	$5, 8(%rax)
	addq	$16, %rsp
	.cfi_def_cfa_offset 16
	popq	%rbx
	.cfi_def_cfa_offset 8
	retq
.Lfunc_end2:
	.size	Main_new, .Lfunc_end2-Main_new
	.cfi_endproc
                                        # -- End function
	.type	str.Object,@object              # @str.Object
	.section	.rodata,"a",@progbits
str.Object:
	.asciz	"Object"
	.size	str.Object, 7

	.type	Object_vtable_prototype,@object # @Object_vtable_prototype
	.globl	Object_vtable_prototype
	.p2align	4
Object_vtable_prototype:
	.long	0                               # 0x0
	.long	0+8
	.quad	str.Object
	.quad	Object_new
	.quad	Object_abort
	.quad	Object_type_name
	.quad	Object_copy
	.size	Object_vtable_prototype, 48

	.type	str.Int,@object                 # @str.Int
str.Int:
	.asciz	"Int"
	.size	str.Int, 4

	.type	Int_vtable_prototype,@object    # @Int_vtable_prototype
	.globl	Int_vtable_prototype
	.p2align	4
Int_vtable_prototype:
	.long	1                               # 0x1
	.long	0+16
	.quad	str.Int
	.quad	Int_new
	.quad	Object_abort
	.quad	Object_type_name
	.quad	Object_copy
	.size	Int_vtable_prototype, 48

	.type	str.Bool,@object                # @str.Bool
str.Bool:
	.asciz	"Bool"
	.size	str.Bool, 5

	.type	Bool_vtable_prototype,@object   # @Bool_vtable_prototype
	.globl	Bool_vtable_prototype
	.p2align	4
Bool_vtable_prototype:
	.long	2                               # 0x2
	.long	0+16
	.quad	str.Bool
	.quad	Bool_new
	.quad	Object_abort
	.quad	Object_type_name
	.quad	Object_copy
	.size	Bool_vtable_prototype, 48

	.type	str.String,@object              # @str.String
str.String:
	.asciz	"String"
	.size	str.String, 7

	.type	String_vtable_prototype,@object # @String_vtable_prototype
	.globl	String_vtable_prototype
	.p2align	4
String_vtable_prototype:
	.long	3                               # 0x3
	.long	(0+8)*2
	.quad	str.String
	.quad	String_new
	.quad	Object_abort
	.quad	Object_type_name
	.quad	Object_copy
	.quad	String_length
	.quad	String_concat
	.quad	String_substr
	.size	String_vtable_prototype, 72

	.type	str.IO,@object                  # @str.IO
str.IO:
	.asciz	"IO"
	.size	str.IO, 3

	.type	IO_vtable_prototype,@object     # @IO_vtable_prototype
	.globl	IO_vtable_prototype
	.p2align	4
IO_vtable_prototype:
	.long	4                               # 0x4
	.long	0+8
	.quad	str.IO
	.quad	IO_new
	.quad	Object_abort
	.quad	Object_type_name
	.quad	Object_copy
	.quad	IO_out_string
	.quad	IO_out_int
	.quad	IO_in_string
	.quad	IO_in_int
	.size	IO_vtable_prototype, 80

	.type	str.Main,@object                # @str.Main
str.Main:
	.asciz	"Main"
	.size	str.Main, 5

	.type	Main_vtable_prototype,@object   # @Main_vtable_prototype
	.globl	Main_vtable_prototype
	.p2align	4
Main_vtable_prototype:
	.long	5                               # 0x5
	.long	0+16
	.quad	str.Main
	.quad	Main_new
	.quad	Object_abort
	.quad	Object_type_name
	.quad	Object_copy
	.quad	IO_out_string
	.quad	IO_out_int
	.quad	IO_in_string
	.quad	IO_in_int
	.quad	Main_main
	.size	Main_vtable_prototype, 88

	.type	str.1,@object                   # @str.1
str.1:
	.asciz	"<basic class>"
	.size	str.1, 14

	.type	String.1,@object                # @String.1
	.globl	String.1
	.p2align	3
String.1:
	.quad	String_vtable_prototype
	.quad	str.1
	.size	String.1, 16

	.type	str.0,@object                   # @str.0
str.0:
	.asciz	"assign1o.cl"
	.size	str.0, 12

	.type	String.0,@object                # @String.0
	.globl	String.0
	.p2align	3
String.0:
	.quad	String_vtable_prototype
	.quad	str.0
	.size	String.0, 16

	.section	".note.GNU-stack","",@progbits
